target datalayout = "e-m:e-p270:32:32-p271:32:32-p272:64:64-i64:64-i128:128-f80:128-n8:16:32:64-S128"
target triple = "x86_64-pc-linux-gnu"

@map_StringForGamepadType = internal global [12 x ptr] [ptr @.str.24, ptr @.str.25, ptr @.str.26, ptr @.str.27, ptr @.str.28, ptr @.str.29, ptr @.str.30, ptr @.str.31, ptr @.str.32, ptr @.str.33, ptr @.str.34, ptr @.str.35], align 16

; Function Attrs: nounwind uwtable
define hidden i32 @SDL_GetGamepadTypeFromString_REAL(ptr noundef %0) #0 {
  %2 = alloca i32, align 4
  %3 = alloca ptr, align 8
  %4 = alloca i32, align 4
  %5 = alloca i32, align 4
  store ptr %0, ptr %3, align 8
  call void @llvm.lifetime.start.p0(i64 4, ptr %4) #8
  %6 = load ptr, ptr %3, align 8
  %7 = icmp ne ptr %6, null
  br i1 %7, label %8, label %14

8:                                                ; preds = %1
  %9 = load ptr, ptr %3, align 8
  %10 = getelementptr inbounds i8, ptr %9, i64 0
  %11 = load i8, ptr %10, align 1
  %12 = sext i8 %11 to i32
  %13 = icmp eq i32 %12, 0
  br i1 %13, label %14, label %15

14:                                               ; preds = %8, %1
  store i32 0, ptr %2, align 4
  store i32 1, ptr %5, align 4
  br label %48

15:                                               ; preds = %8
  %16 = load ptr, ptr %3, align 8
  %17 = load i8, ptr %16, align 1
  %18 = sext i8 %17 to i32
  %19 = icmp eq i32 %18, 43
  br i1 %19, label %25, label %20

20:                                               ; preds = %15
  %21 = load ptr, ptr %3, align 8
  %22 = load i8, ptr %21, align 1
  %23 = sext i8 %22 to i32
  %24 = icmp eq i32 %23, 45
  br i1 %24, label %25, label %28

25:                                               ; preds = %20, %15
  %26 = load ptr, ptr %3, align 8
  %27 = getelementptr inbounds nuw i8, ptr %26, i32 1
  store ptr %27, ptr %3, align 8
  br label %28

28:                                               ; preds = %25, %20
  store i32 0, ptr %4, align 4
  br label %29

29:                                               ; preds = %44, %28
  %30 = load i32, ptr %4, align 4
  %31 = sext i32 %30 to i64
  %32 = icmp ult i64 %31, 12
  br i1 %32, label %33, label %47

33:                                               ; preds = %29
  %34 = load ptr, ptr %3, align 8
  %35 = load i32, ptr %4, align 4
  %36 = sext i32 %35 to i64
  %37 = getelementptr inbounds [12 x ptr], ptr @map_StringForGamepadType, i64 0, i64 %36
  %38 = load ptr, ptr %37, align 8
  %39 = call i32 @SDL_strcasecmp_REAL(ptr noundef %34, ptr noundef %38)
  %40 = icmp eq i32 %39, 0
  br i1 %40, label %41, label %43

41:                                               ; preds = %33
  %42 = load i32, ptr %4, align 4
  store i32 %42, ptr %2, align 4
  store i32 1, ptr %5, align 4
  br label %48

43:                                               ; preds = %33
  br label %44

44:                                               ; preds = %43
  %45 = load i32, ptr %4, align 4
  %46 = add nsw i32 %45, 1
  store i32 %46, ptr %4, align 4
  br label %29, !llvm.loop !12

47:                                               ; preds = %29
  store i32 0, ptr %2, align 4
  store i32 1, ptr %5, align 4
  br label %48

48:                                               ; preds = %47, %41, %14
  call void @llvm.lifetime.end.p0(i64 4, ptr %4) #8
  %49 = load i32, ptr %2, align 4
  ret i32 %49
}