; Function Attrs: nounwind uwtable
define hidden range(i32 0, 12) i32 @SDL_GetGamepadTypeFromString_REAL(ptr noundef %0) local_unnamed_addr #0 {
  %.not = icmp eq ptr %0, null
  br i1 %.not, label %.loopexit, label %2

2:                                                ; preds = %1
  %3 = load i8, ptr %0, align 1
  switch i8 %3, label %6 [
    i8 0, label %.loopexit
    i8 43, label %4
    i8 45, label %4
  ]

4:                                                ; preds = %2, %2
  %5 = getelementptr inbounds nuw i8, ptr %0, i64 1
  br label %6

6:                                                ; preds = %2, %4
  %.010 = phi ptr [ %5, %4 ], [ %0, %2 ]
  br label %7

7:                                                ; preds = %6, %12
  %indvars.iv = phi i64 [ 0, %6 ], [ %indvars.iv.next, %12 ]
  %8 = getelementptr inbounds nuw [12 x ptr], ptr @map_StringForGamepadType, i64 0, i64 %indvars.iv
  %9 = load ptr, ptr %8, align 8
  %10 = tail call i32 @SDL_strcasecmp_REAL(ptr noundef nonnull %.010, ptr noundef %9) #10
  %11 = icmp eq i32 %10, 0
  br i1 %11, label %.loopexit.loopexit.split.loop.exit, label %12

12:                                               ; preds = %7
  %indvars.iv.next = add nuw nsw i64 %indvars.iv, 1
  %exitcond.not = icmp eq i64 %indvars.iv.next, 12
  br i1 %exitcond.not, label %.loopexit, label %7, !llvm.loop !10

.loopexit.loopexit.split.loop.exit:               ; preds = %7
  %13 = trunc nuw nsw i64 %indvars.iv to i32
  br label %.loopexit

.loopexit:                                        ; preds = %12, %.loopexit.loopexit.split.loop.exit, %2, %1
  %.011 = phi i32 [ 0, %2 ], [ 0, %1 ], [ %13, %.loopexit.loopexit.split.loop.exit ], [ 0, %12 ]
  ret i32 %.011
}